target datalayout = "e-m:e-p270:32:32-p271:32:32-p272:64:64-i64:64-i128:128-f80:128-n8:16:32:64-S128"
target triple = "x86_64-pc-linux-gnu"

%class.anon = type { i8 }

@.str.2 = private unnamed_addr constant [135 x i8] c"generated/home/dtcxzyw/WorkSpace/Projects/compilers/llvm-opt-benchmark/bench/gromacs/gromacs/src/gromacs/analysisdata/abstractdata.cpp\00", align 1
@.str.4 = private unnamed_addr constant [14 x i8] c"nframes >= -1\00", align 1
@.str.5 = private unnamed_addr constant [35 x i8] c"Invalid number of frames requested\00", align 1
@"__PRETTY_FUNCTION__._ZZN3gmx20AbstractAnalysisData14requestStorageEiENK3$_0clEv" = private unnamed_addr constant [91 x i8] c"auto gmx::AbstractAnalysisData::requestStorage(int)::(anonymous class)::operator()() const\00", align 1

; Function Attrs: inlinehint mustprogress uwtable
define internal void @"_ZZN3gmx20AbstractAnalysisData14requestStorageEiENK3$_0clEv"(ptr noundef nonnull align 1 dereferenceable(1) %0) #12 align 2 {
  %2 = alloca ptr, align 8
  store ptr %0, ptr %2, align 8, !tbaa !58
  call void @_ZN3gmx8internal13assertHandlerEPKcS2_S2_S2_i(ptr noundef @.str.4, ptr noundef @.str.5, ptr noundef @"__PRETTY_FUNCTION__._ZZN3gmx20AbstractAnalysisData14requestStorageEiENK3$_0clEv", ptr noundef @.str.2, i32 noundef 143) #19
  unreachable
}

; Function Attrs: mustprogress uwtable
define noundef zeroext i1 @_ZN3gmx20AbstractAnalysisData14requestStorageEi(ptr noundef nonnull align 8 dereferenceable(16) %0, i32 noundef %1) #1 align 2 {
  %3 = alloca i1, align 1
  %4 = alloca ptr, align 8
  %5 = alloca i32, align 4
  %6 = alloca %class.anon, align 1
  store ptr %0, ptr %4, align 8, !tbaa !4
  store i32 %1, ptr %5, align 4, !tbaa !27
  %7 = load ptr, ptr %4, align 8
  %8 = load i32, ptr %5, align 4, !tbaa !27
  %9 = icmp sge i32 %8, -1
  call void @llvm.lifetime.start.p0(i64 1, ptr %6) #18
  br i1 %9, label %10, label %11

10:                                               ; preds = %2
  br label %12

11:                                               ; preds = %2
  call void @"_ZZN3gmx20AbstractAnalysisData14requestStorageEiENK3$_0clEv"(ptr noundef nonnull align 1 dereferenceable(1) %6)
  br label %12

12:                                               ; preds = %11, %10
  call void @llvm.lifetime.end.p0(i64 1, ptr %6) #18
  %13 = load i32, ptr %5, align 4, !tbaa !27
  %14 = icmp eq i32 %13, 0
  br i1 %14, label %15, label %16

15:                                               ; preds = %12
  store i1 true, ptr %3, align 1
  br label %22

16:                                               ; preds = %12
  %17 = load i32, ptr %5, align 4, !tbaa !27
  %18 = load ptr, ptr %7, align 8, !tbaa !59
  %19 = getelementptr inbounds ptr, ptr %18, i64 4
  %20 = load ptr, ptr %19, align 8
  %21 = call noundef zeroext i1 %20(ptr noundef nonnull align 8 dereferenceable(16) %7, i32 noundef %17)
  store i1 %21, ptr %3, align 1
  br label %22

22:                                               ; preds = %16, %15
  %23 = load i1, ptr %3, align 1
  ret i1 %23
}