; Function Attrs: mustprogress uwtable
define noundef zeroext i1 @_ZN3gmx20AbstractAnalysisData14requestStorageEi(ptr noundef nonnull align 8 dereferenceable(16) %0, i32 noundef %1) local_unnamed_addr #1 align 2 {
  %3 = icmp sgt i32 %1, -2
  br i1 %3, label %5, label %4

4:                                                ; preds = %2
  tail call void @_ZN3gmx8internal13assertHandlerEPKcS2_S2_S2_i(ptr noundef nonnull @.str.4, ptr noundef nonnull @.str.5, ptr noundef nonnull @"__PRETTY_FUNCTION__._ZZN3gmx20AbstractAnalysisData14requestStorageEiENK3$_0clEv", ptr noundef nonnull @.str.2, i32 noundef 143) #24
  unreachable

5:                                                ; preds = %2
  %6 = icmp eq i32 %1, 0
  br i1 %6, label %12, label %7

7:                                                ; preds = %5
  %8 = load ptr, ptr %0, align 8, !tbaa !14
  %9 = getelementptr inbounds nuw i8, ptr %8, i64 32
  %10 = load ptr, ptr %9, align 8
  %11 = tail call noundef zeroext i1 %10(ptr noundef nonnull align 8 dereferenceable(16) %0, i32 noundef %1)
  br label %12

12:                                               ; preds = %5, %7
  %.0 = phi i1 [ %11, %7 ], [ true, %5 ]
  ret i1 %.0
}